target datalayout = "e-m:e-p270:32:32-p271:32:32-p272:64:64-i64:64-i128:128-f80:128-n8:16:32:64-S128"
target triple = "x86_64-pc-linux-gnu"

@.str = private unnamed_addr constant [37 x i8] c"../openssl/crypto/ts/ts_rsp_verify.c\00", align 1
@__func__.ts_verify_cert = private unnamed_addr constant [15 x i8] c"ts_verify_cert\00", align 1
@.str.1 = private unnamed_addr constant [16 x i8] c"Verify error:%s\00", align 1

; Function Attrs: nounwind uwtable
define internal i32 @ts_verify_cert(ptr noundef %0, ptr noundef %1, ptr noundef %2, ptr noundef %3) #0 {
  %5 = alloca i32, align 4
  %6 = alloca ptr, align 8
  %7 = alloca ptr, align 8
  %8 = alloca ptr, align 8
  %9 = alloca ptr, align 8
  %10 = alloca ptr, align 8
  %11 = alloca i32, align 4
  %12 = alloca i32, align 4
  %13 = alloca i32, align 4
  %14 = alloca i32, align 4
  store ptr %0, ptr %6, align 8, !tbaa !10
  store ptr %1, ptr %7, align 8, !tbaa !8
  store ptr %2, ptr %8, align 8, !tbaa !29
  store ptr %3, ptr %9, align 8, !tbaa !40
  call void @llvm.lifetime.start.p0(i64 8, ptr %10) #7
  store ptr null, ptr %10, align 8, !tbaa !42
  call void @llvm.lifetime.start.p0(i64 4, ptr %11) #7
  call void @llvm.lifetime.start.p0(i64 4, ptr %12) #7
  store i32 0, ptr %12, align 4, !tbaa !16
  %15 = load ptr, ptr %9, align 8, !tbaa !40
  store ptr null, ptr %15, align 8, !tbaa !8
  %16 = call ptr @X509_STORE_CTX_new()
  store ptr %16, ptr %10, align 8, !tbaa !42
  %17 = load ptr, ptr %10, align 8, !tbaa !42
  %18 = icmp eq ptr %17, null
  br i1 %18, label %19, label %20

19:                                               ; preds = %4
  call void @ERR_new()
  call void @ERR_set_debug(ptr noundef @.str, i32 noundef 181, ptr noundef @__func__.ts_verify_cert)
  call void (i32, i32, ptr, ...) @ERR_set_error(i32 noundef 47, i32 noundef 524299, ptr noundef null)
  br label %46

20:                                               ; preds = %4
  %21 = load ptr, ptr %10, align 8, !tbaa !42
  %22 = load ptr, ptr %6, align 8, !tbaa !10
  %23 = load ptr, ptr %8, align 8, !tbaa !29
  %24 = load ptr, ptr %7, align 8, !tbaa !8
  %25 = call i32 @X509_STORE_CTX_init(ptr noundef %21, ptr noundef %22, ptr noundef %23, ptr noundef %24)
  %26 = icmp ne i32 %25, 0
  br i1 %26, label %28, label %27

27:                                               ; preds = %20
  br label %47

28:                                               ; preds = %20
  %29 = load ptr, ptr %10, align 8, !tbaa !42
  %30 = call i32 @X509_STORE_CTX_set_purpose(ptr noundef %29, i32 noundef 9)
  %31 = load ptr, ptr %10, align 8, !tbaa !42
  %32 = call i32 @X509_verify_cert(ptr noundef %31)
  store i32 %32, ptr %11, align 4, !tbaa !16
  %33 = load i32, ptr %11, align 4, !tbaa !16
  %34 = icmp sle i32 %33, 0
  br i1 %34, label %35, label %42

35:                                               ; preds = %28
  call void @llvm.lifetime.start.p0(i64 4, ptr %13) #7
  %36 = load ptr, ptr %10, align 8, !tbaa !42
  %37 = call i32 @X509_STORE_CTX_get_error(ptr noundef %36)
  store i32 %37, ptr %13, align 4, !tbaa !16
  call void @ERR_new()
  call void @ERR_set_debug(ptr noundef @.str, i32 noundef 190, ptr noundef @__func__.ts_verify_cert)
  %38 = load i32, ptr %13, align 4, !tbaa !16
  %39 = sext i32 %38 to i64
  %40 = call ptr @X509_verify_cert_error_string(i64 noundef %39)
  call void (i32, i32, ptr, ...) @ERR_set_error(i32 noundef 47, i32 noundef 100, ptr noundef @.str.1, ptr noundef %40)
  store i32 2, ptr %14, align 4
  call void @llvm.lifetime.end.p0(i64 4, ptr %13) #7
  %41 = load i32, ptr %14, align 4
  switch i32 %41, label %50 [
    i32 2, label %46
  ]

42:                                               ; preds = %28
  %43 = load ptr, ptr %10, align 8, !tbaa !42
  %44 = call ptr @X509_STORE_CTX_get1_chain(ptr noundef %43)
  %45 = load ptr, ptr %9, align 8, !tbaa !40
  store ptr %44, ptr %45, align 8, !tbaa !8
  store i32 1, ptr %12, align 4, !tbaa !16
  br label %47

46:                                               ; preds = %35, %19
  store i32 0, ptr %12, align 4, !tbaa !16
  br label %47

47:                                               ; preds = %46, %42, %27
  %48 = load ptr, ptr %10, align 8, !tbaa !42
  call void @X509_STORE_CTX_free(ptr noundef %48)
  %49 = load i32, ptr %12, align 4, !tbaa !16
  store i32 %49, ptr %5, align 4
  store i32 1, ptr %14, align 4
  br label %50

50:                                               ; preds = %47, %35
  call void @llvm.lifetime.end.p0(i64 4, ptr %12) #7
  call void @llvm.lifetime.end.p0(i64 4, ptr %11) #7
  call void @llvm.lifetime.end.p0(i64 8, ptr %10) #7
  %51 = load i32, ptr %5, align 4
  ret i32 %51
}