; Function Attrs: nounwind uwtable
define internal fastcc range(i32 0, 2) i32 @ts_verify_cert(ptr noundef %0, ptr noundef nonnull %1, ptr noundef %2, ptr noundef nonnull writeonly captures(none) initializes((0, 8)) %3) unnamed_addr #0 {
  store ptr null, ptr %3, align 8, !tbaa !23
  %5 = tail call ptr @X509_STORE_CTX_new() #7
  %6 = icmp eq ptr %5, null
  br i1 %6, label %7, label %8

7:                                                ; preds = %4
  tail call void @ERR_new() #7
  tail call void @ERR_set_debug(ptr noundef nonnull @.str, i32 noundef 181, ptr noundef nonnull @__func__.ts_verify_cert) #7
  tail call void (i32, i32, ptr, ...) @ERR_set_error(i32 noundef 47, i32 noundef 524299, ptr noundef null) #7
  br label %20

8:                                                ; preds = %4
  %9 = tail call i32 @X509_STORE_CTX_init(ptr noundef nonnull %5, ptr noundef %0, ptr noundef %2, ptr noundef nonnull %1) #7
  %.not = icmp eq i32 %9, 0
  br i1 %.not, label %20, label %10

10:                                               ; preds = %8
  %11 = tail call i32 @X509_STORE_CTX_set_purpose(ptr noundef nonnull %5, i32 noundef 9) #7
  %12 = tail call i32 @X509_verify_cert(ptr noundef nonnull %5) #7
  %13 = icmp slt i32 %12, 1
  br i1 %13, label %14, label %18

14:                                               ; preds = %10
  %15 = tail call i32 @X509_STORE_CTX_get_error(ptr noundef nonnull %5) #7
  tail call void @ERR_new() #7
  tail call void @ERR_set_debug(ptr noundef nonnull @.str, i32 noundef 190, ptr noundef nonnull @__func__.ts_verify_cert) #7
  %16 = sext i32 %15 to i64
  %17 = tail call ptr @X509_verify_cert_error_string(i64 noundef %16) #7
  tail call void (i32, i32, ptr, ...) @ERR_set_error(i32 noundef 47, i32 noundef 100, ptr noundef nonnull @.str.1, ptr noundef %17) #7
  br label %20

18:                                               ; preds = %10
  %19 = tail call ptr @X509_STORE_CTX_get1_chain(ptr noundef nonnull %5) #7
  store ptr %19, ptr %3, align 8, !tbaa !23
  br label %20

20:                                               ; preds = %7, %14, %8, %18
  %.016 = phi i32 [ 1, %18 ], [ 0, %8 ], [ 0, %14 ], [ 0, %7 ]
  tail call void @X509_STORE_CTX_free(ptr noundef %5) #7
  ret i32 %.016
}